; ModuleID = 'source-C-CXX/30/182.c'
source_filename = "source-C-CXX/30/182.c"
target datalayout = "e-m:e-p270:32:32-p271:32:32-p272:64:64-i64:64-f80:128-n8:16:32:64-S128"
target triple = "x86_64-pc-linux-gnu"

%struct.stu = type { [100 x i8], %struct.stu*, %struct.stu* }

@.str = private unnamed_addr constant [4 x i8] c"end\00", align 1

; Function Attrs: nounwind sspstrong uwtable
define dso_local %struct.stu* @creat() local_unnamed_addr #0 {
  %1 = tail call noalias align 16 dereferenceable_or_null(100) i8* @malloc(i64 100) #6
  %2 = bitcast i8* %1 to %struct.stu*
  %3 = getelementptr inbounds %struct.stu, %struct.stu* %2, i64 0, i32 0, i64 0
  %4 = tail call i32 (i8*, ...) bitcast (i32 (...)* @gets to i32 (i8*, ...)*)(i8* %3) #6
  %5 = tail call i32 @strcmp(i8* noundef nonnull dereferenceable(1) %3, i8* noundef nonnull dereferenceable(4) getelementptr inbounds ([4 x i8], [4 x i8]* @.str, i64 0, i64 0)) #7
  %6 = icmp eq i32 %5, 0
  br i1 %6, label %20, label %7

7:                                                ; preds = %0
  %8 = getelementptr inbounds %struct.stu, %struct.stu* %2, i64 0, i32 2
  store %struct.stu* null, %struct.stu** %8, align 16, !tbaa !5
  br label %9

9:                                                ; preds = %9, %7
  %10 = phi %struct.stu* [ %2, %7 ], [ %12, %9 ]
  %11 = tail call noalias align 16 dereferenceable_or_null(100) i8* @malloc(i64 100) #6
  %12 = bitcast i8* %11 to %struct.stu*
  %13 = getelementptr inbounds %struct.stu, %struct.stu* %10, i64 0, i32 1
  %14 = bitcast %struct.stu** %13 to i8**
  store i8* %11, i8** %14, align 8, !tbaa !10
  %15 = getelementptr inbounds %struct.stu, %struct.stu* %12, i64 0, i32 2
  store %struct.stu* %10, %struct.stu** %15, align 16, !tbaa !5
  %16 = getelementptr inbounds %struct.stu, %struct.stu* %12, i64 0, i32 0, i64 0
  %17 = tail call i32 (i8*, ...) bitcast (i32 (...)* @gets to i32 (i8*, ...)*)(i8* %16) #6
  %18 = tail call i32 @strcmp(i8* noundef nonnull dereferenceable(1) %16, i8* noundef nonnull dereferenceable(4) getelementptr inbounds ([4 x i8], [4 x i8]* @.str, i64 0, i64 0)) #7
  %19 = icmp eq i32 %18, 0
  br i1 %19, label %20, label %9, !llvm.loop !11

20:                                               ; preds = %9, %0
  %21 = phi %struct.stu* [ null, %0 ], [ %10, %9 ]
  ret %struct.stu* %21
}

; Function Attrs: inaccessiblememonly mustprogress nofree nounwind willreturn
declare noalias noundef align 16 i8* @malloc(i64 noundef) local_unnamed_addr #1

declare i32 @gets(...) local_unnamed_addr #2

; Function Attrs: argmemonly mustprogress nofree nounwind readonly willreturn
declare i32 @strcmp(i8* nocapture, i8* nocapture) local_unnamed_addr #3

; Function Attrs: nofree nounwind sspstrong uwtable
define dso_local void @printff(%struct.stu* readonly %0) local_unnamed_addr #4 {
  %2 = icmp eq %struct.stu* %0, null
  br i1 %2, label %10, label %3

3:                                                ; preds = %1, %3
  %4 = phi %struct.stu* [ %8, %3 ], [ %0, %1 ]
  %5 = getelementptr inbounds %struct.stu, %struct.stu* %4, i64 0, i32 0, i64 0
  %6 = tail call i32 @puts(i8* nonnull %5)
  %7 = getelementptr inbounds %struct.stu, %struct.stu* %4, i64 0, i32 2
  %8 = load %struct.stu*, %struct.stu** %7, align 8, !tbaa !5
  %9 = icmp eq %struct.stu* %8, null
  br i1 %9, label %10, label %3, !llvm.loop !13

10:                                               ; preds = %3, %1
  ret void
}

; Function Attrs: nounwind sspstrong uwtable
define dso_local i32 @main() local_unnamed_addr #0 {
  %1 = tail call noalias align 16 dereferenceable_or_null(100) i8* @malloc(i64 100) #6
  %2 = bitcast i8* %1 to %struct.stu*
  %3 = getelementptr inbounds %struct.stu, %struct.stu* %2, i64 0, i32 0, i64 0
  %4 = tail call i32 (i8*, ...) bitcast (i32 (...)* @gets to i32 (i8*, ...)*)(i8* %3) #6
  %5 = tail call i32 @strcmp(i8* noundef nonnull dereferenceable(1) %3, i8* noundef nonnull dereferenceable(4) getelementptr inbounds ([4 x i8], [4 x i8]* @.str, i64 0, i64 0)) #7
  %6 = icmp eq i32 %5, 0
  br i1 %6, label %27, label %7

7:                                                ; preds = %0
  %8 = getelementptr inbounds %struct.stu, %struct.stu* %2, i64 0, i32 2
  store %struct.stu* null, %struct.stu** %8, align 16, !tbaa !5
  br label %9

9:                                                ; preds = %9, %7
  %10 = phi %struct.stu* [ %2, %7 ], [ %12, %9 ]
  %11 = tail call noalias align 16 dereferenceable_or_null(100) i8* @malloc(i64 100) #6
  %12 = bitcast i8* %11 to %struct.stu*
  %13 = getelementptr inbounds %struct.stu, %struct.stu* %10, i64 0, i32 1
  %14 = bitcast %struct.stu** %13 to i8**
  store i8* %11, i8** %14, align 8, !tbaa !10
  %15 = getelementptr inbounds %struct.stu, %struct.stu* %12, i64 0, i32 2
  store %struct.stu* %10, %struct.stu** %15, align 16, !tbaa !5
  %16 = getelementptr inbounds %struct.stu, %struct.stu* %12, i64 0, i32 0, i64 0
  %17 = tail call i32 (i8*, ...) bitcast (i32 (...)* @gets to i32 (i8*, ...)*)(i8* %16) #6
  %18 = tail call i32 @strcmp(i8* noundef nonnull dereferenceable(1) %16, i8* noundef nonnull dereferenceable(4) getelementptr inbounds ([4 x i8], [4 x i8]* @.str, i64 0, i64 0)) #7
  %19 = icmp eq i32 %18, 0
  br i1 %19, label %20, label %9, !llvm.loop !11

20:                                               ; preds = %9, %20
  %21 = phi %struct.stu* [ %25, %20 ], [ %10, %9 ]
  %22 = getelementptr inbounds %struct.stu, %struct.stu* %21, i64 0, i32 0, i64 0
  %23 = tail call i32 @puts(i8* nonnull %22) #6
  %24 = getelementptr inbounds %struct.stu, %struct.stu* %21, i64 0, i32 2
  %25 = load %struct.stu*, %struct.stu** %24, align 8, !tbaa !5
  %26 = icmp eq %struct.stu* %25, null
  br i1 %26, label %27, label %20, !llvm.loop !13

27:                                               ; preds = %20, %0
  ret i32 0
}

; Function Attrs: nofree nounwind
declare noundef i32 @puts(i8* nocapture noundef readonly) local_unnamed_addr #5


!llvm.module.flags = !{!0, !1, !2, !3}
!llvm.ident = !{!4}

!0 = !{i32 1, !"wchar_size", i32 4}
!1 = !{i32 7, !"PIC Level", i32 2}
!2 = !{i32 7, !"PIE Level", i32 2}
!3 = !{i32 7, !"uwtable", i32 1}
!4 = !{!"clang version 13.0.0"}
!5 = !{!6, !9, i64 112}
!6 = !{!"stu", !7, i64 0, !9, i64 104, !9, i64 112}
!7 = !{!"omnipotent char", !8, i64 0}
!8 = !{!"Simple C/C++ TBAA"}
!9 = !{!"any pointer", !7, i64 0}
!10 = !{!6, !9, i64 104}
!11 = distinct !{!11, !12}
!12 = !{!"llvm.loop.mustprogress"}
!13 = distinct !{!13, !12}
